target datalayout = "e-m:e-p270:32:32-p271:32:32-p272:64:64-i64:64-i128:128-f80:128-n8:16:32:64-S128"
target triple = "x86_64-pc-linux-gnu"

%struct.acct_gather_data = type { i64, i64, i64, i64, i64 }

@plugin_type = dso_local constant [31 x i8] c"acct_gather_interconnect/sysfs\00", align 16
@tres_pos = internal global i32 -1, align 4
@interfaces = internal global ptr null, align 8
@.str.13 = private unnamed_addr constant [42 x i8] c"%s: %s: We are not tracking TRES ic/sysfs\00", align 1
@__func__.acct_gather_interconnect_p_get_data = private unnamed_addr constant [36 x i8] c"acct_gather_interconnect_p_get_data\00", align 1

; Function Attrs: nounwind uwtable
define internal void @_blank(ptr noundef %0) #0 {
  %2 = alloca ptr, align 8
  store ptr %0, ptr %2, align 8
  %3 = load ptr, ptr %2, align 8
  %4 = getelementptr inbounds nuw %struct.acct_gather_data, ptr %3, i32 0, i32 1
  store i64 0, ptr %4, align 8
  %5 = load ptr, ptr %2, align 8
  %6 = getelementptr inbounds nuw %struct.acct_gather_data, ptr %5, i32 0, i32 2
  store i64 0, ptr %6, align 8
  %7 = load ptr, ptr %2, align 8
  %8 = getelementptr inbounds nuw %struct.acct_gather_data, ptr %7, i32 0, i32 3
  store i64 0, ptr %8, align 8
  %9 = load ptr, ptr %2, align 8
  %10 = getelementptr inbounds nuw %struct.acct_gather_data, ptr %9, i32 0, i32 4
  store i64 0, ptr %10, align 8
  ret void
}

; Function Attrs: nounwind uwtable
define dso_local i32 @acct_gather_interconnect_p_get_data(ptr noundef %0) #0 {
  %2 = alloca i32, align 4
  %3 = alloca ptr, align 8
  store ptr %0, ptr %3, align 8
  %4 = load i32, ptr @tres_pos, align 4
  %5 = icmp eq i32 %4, -1
  br i1 %5, label %9, label %6

6:                                                ; preds = %1
  %7 = load ptr, ptr %3, align 8
  %8 = icmp ne ptr %7, null
  br i1 %8, label %18, label %9

9:                                                ; preds = %6, %1
  br label %10

10:                                               ; preds = %9
  br label %11

11:                                               ; preds = %10
  %12 = call i32 @slurm_get_log_level()
  %13 = icmp sge i32 %12, 6
  br i1 %13, label %14, label %15

14:                                               ; preds = %11
  call void (i32, ptr, ...) @slurm_log_var(i32 noundef 6, ptr noundef @.str.13, ptr noundef @plugin_type, ptr noundef @__func__.acct_gather_interconnect_p_get_data)
  br label %15

15:                                               ; preds = %14, %11
  br label %16

16:                                               ; preds = %15
  br label %17

17:                                               ; preds = %16
  store i32 0, ptr %2, align 4
  br label %29

18:                                               ; preds = %6
  %19 = load ptr, ptr %3, align 8
  %20 = load i32, ptr @tres_pos, align 4
  %21 = sext i32 %20 to i64
  %22 = getelementptr inbounds %struct.acct_gather_data, ptr %19, i64 %21
  call void @_blank(ptr noundef %22)
  %23 = load ptr, ptr @interfaces, align 8
  %24 = load ptr, ptr %3, align 8
  %25 = load i32, ptr @tres_pos, align 4
  %26 = sext i32 %25 to i64
  %27 = getelementptr inbounds %struct.acct_gather_data, ptr %24, i64 %26
  %28 = call i32 @slurm_list_for_each(ptr noundef %23, ptr noundef @_get_data, ptr noundef %27)
  store i32 0, ptr %2, align 4
  br label %29

29:                                               ; preds = %18, %17
  %30 = load i32, ptr %2, align 4
  ret i32 %30
}