; Function Attrs: nounwind uwtable
define dso_local noundef i32 @acct_gather_interconnect_p_get_data(ptr noundef %0) local_unnamed_addr #0 {
  %2 = load i32, ptr @tres_pos, align 4
  %3 = icmp ne i32 %2, -1
  %4 = icmp ne ptr %0, null
  %or.cond = and i1 %4, %3
  br i1 %or.cond, label %9, label %5

5:                                                ; preds = %1
  %6 = tail call i32 @slurm_get_log_level() #9
  %7 = icmp sgt i32 %6, 5
  br i1 %7, label %8, label %15

8:                                                ; preds = %5
  tail call void (i32, ptr, ...) @slurm_log_var(i32 noundef 6, ptr noundef nonnull @.str.13, ptr noundef nonnull @plugin_type, ptr noundef nonnull @__func__.acct_gather_interconnect_p_get_data) #9
  br label %15

9:                                                ; preds = %1
  %10 = sext i32 %2 to i64
  %11 = getelementptr inbounds %struct.acct_gather_data, ptr %0, i64 %10
  %12 = getelementptr inbounds nuw i8, ptr %11, i64 8
  tail call void @llvm.memset.p0.i64(ptr noundef nonnull align 8 dereferenceable(32) %12, i8 0, i64 32, i1 false)
  %13 = load ptr, ptr @interfaces, align 8
  %14 = tail call i32 @slurm_list_for_each(ptr noundef %13, ptr noundef nonnull @_get_data, ptr noundef nonnull %11) #9
  br label %15

15:                                               ; preds = %5, %8, %9
  ret i32 0
}